; Function Attrs: mustprogress uwtable
define range(i32 -1, 1) i32 @LGBM_BoosterShuffleModels(ptr noundef nonnull %0, i32 noundef %1, i32 noundef %2) local_unnamed_addr #5 personality ptr @__gxx_personality_v0 {
  %4 = alloca %"class.std::__cxx11::basic_string", align 8
  %5 = alloca %"class.std::allocator", align 1
  invoke void @_ZN8LightGBM7Booster13ShuffleModelsEii(ptr noundef nonnull align 8 dereferenceable(1824) %0, i32 noundef %1, i32 noundef %2)
          to label %41 unwind label %6

6:                                                ; preds = %3
  %7 = landingpad { ptr, i32 }
          catch ptr @_ZTISt9exception
          catch ptr @_ZTINSt7__cxx1112basic_stringIcSt11char_traitsIcESaIcEEE
          catch ptr null
  %8 = extractvalue { ptr, i32 } %7, 0
  %9 = extractvalue { ptr, i32 } %7, 1
  %10 = tail call i32 @llvm.eh.typeid.for.p0(ptr nonnull @_ZTISt9exception) #26
  %11 = icmp eq i32 %9, %10
  br i1 %11, label %12, label %20

12:                                               ; preds = %6
  %13 = tail call ptr @__cxa_begin_catch(ptr %8) #26
  %14 = load ptr, ptr %13, align 8, !tbaa !14
  %15 = getelementptr inbounds nuw i8, ptr %14, i64 16
  %16 = load ptr, ptr %15, align 8
  %17 = tail call noundef ptr %16(ptr noundef nonnull align 8 dereferenceable(8) %13) #26
  %18 = tail call noundef nonnull align 16 ptr @llvm.threadlocal.address.p0(ptr align 16 @_ZZL12LastErrorMsgvE7err_msg)
  %19 = tail call i32 (ptr, i64, ptr, ...) @snprintf(ptr noundef nonnull dereferenceable(1) %18, i64 noundef 512, ptr noundef nonnull @.str.1, ptr noundef %17) #26
  tail call void @__cxa_end_catch()
  br label %41

20:                                               ; preds = %6
  %21 = tail call i32 @llvm.eh.typeid.for.p0(ptr nonnull @_ZTINSt7__cxx1112basic_stringIcSt11char_traitsIcESaIcEEE) #26
  %22 = icmp eq i32 %9, %21
  %23 = tail call ptr @__cxa_begin_catch(ptr %8) #26
  br i1 %22, label %24, label %28

24:                                               ; preds = %20
  %25 = load ptr, ptr %23, align 8, !tbaa !13
  %26 = tail call noundef nonnull align 16 ptr @llvm.threadlocal.address.p0(ptr align 16 @_ZZL12LastErrorMsgvE7err_msg)
  %27 = tail call i32 (ptr, i64, ptr, ...) @snprintf(ptr noundef nonnull dereferenceable(1) %26, i64 noundef 512, ptr noundef nonnull @.str.1, ptr noundef %25) #26
  tail call void @__cxa_end_catch()
  br label %41

28:                                               ; preds = %20
  call void @llvm.lifetime.start.p0(i64 32, ptr nonnull %4) #26
  call void @llvm.lifetime.start.p0(i64 1, ptr nonnull %5) #26
  invoke void @_ZNSt7__cxx1112basic_stringIcSt11char_traitsIcESaIcEEC2EPKcRKS3_(ptr noundef nonnull align 8 dereferenceable(32) %4, ptr noundef nonnull @.str, ptr noundef nonnull align 1 dereferenceable(1) %5)
          to label %29 unwind label %39

29:                                               ; preds = %28
  %30 = load ptr, ptr %4, align 8, !tbaa !13
  %31 = call noundef nonnull align 16 ptr @llvm.threadlocal.address.p0(ptr align 16 @_ZZL12LastErrorMsgvE7err_msg)
  %32 = call i32 (ptr, i64, ptr, ...) @snprintf(ptr noundef nonnull dereferenceable(1) %31, i64 noundef 512, ptr noundef nonnull @.str.1, ptr noundef %30) #26
  %33 = load ptr, ptr %4, align 8, !tbaa !13
  %34 = getelementptr inbounds nuw i8, ptr %4, i64 16
  %35 = icmp eq ptr %33, %34
  br i1 %35, label %_ZNKSt7__cxx1112basic_stringIcSt11char_traitsIcESaIcEE11_M_is_localEv.exit.thread.i.i, label %_ZNKSt7__cxx1112basic_stringIcSt11char_traitsIcESaIcEE11_M_is_localEv.exit.i.i

_ZNKSt7__cxx1112basic_stringIcSt11char_traitsIcESaIcEE11_M_is_localEv.exit.thread.i.i: ; preds = %29
  %36 = getelementptr inbounds nuw i8, ptr %4, i64 8
  %37 = load i64, ptr %36, align 8, !tbaa !4
  %38 = icmp ult i64 %37, 16
  call void @llvm.assume(i1 %38)
  br label %_ZNSt7__cxx1112basic_stringIcSt11char_traitsIcESaIcEED2Ev.exit

_ZNKSt7__cxx1112basic_stringIcSt11char_traitsIcESaIcEE11_M_is_localEv.exit.i.i: ; preds = %29
  call void @_ZdlPv(ptr noundef %33) #39
  br label %_ZNSt7__cxx1112basic_stringIcSt11char_traitsIcESaIcEED2Ev.exit

_ZNSt7__cxx1112basic_stringIcSt11char_traitsIcESaIcEED2Ev.exit: ; preds = %_ZNKSt7__cxx1112basic_stringIcSt11char_traitsIcESaIcEE11_M_is_localEv.exit.thread.i.i, %_ZNKSt7__cxx1112basic_stringIcSt11char_traitsIcESaIcEE11_M_is_localEv.exit.i.i
  call void @llvm.lifetime.end.p0(i64 1, ptr nonnull %5) #26
  call void @llvm.lifetime.end.p0(i64 32, ptr nonnull %4) #26
  call void @__cxa_end_catch()
  br label %41

39:                                               ; preds = %28
  %40 = landingpad { ptr, i32 }
          cleanup
  call void @llvm.lifetime.end.p0(i64 1, ptr nonnull %5) #26
  call void @llvm.lifetime.end.p0(i64 32, ptr nonnull %4) #26
  invoke void @__cxa_end_catch()
          to label %42 unwind label %43

41:                                               ; preds = %3, %_ZNSt7__cxx1112basic_stringIcSt11char_traitsIcESaIcEED2Ev.exit, %24, %12
  %.0 = phi i32 [ -1, %12 ], [ -1, %24 ], [ -1, %_ZNSt7__cxx1112basic_stringIcSt11char_traitsIcESaIcEED2Ev.exit ], [ 0, %3 ]
  ret i32 %.0

42:                                               ; preds = %39
  resume { ptr, i32 } %40

43:                                               ; preds = %39
  %44 = landingpad { ptr, i32 }
          catch ptr null
  %45 = extractvalue { ptr, i32 } %44, 0
  call void @__clang_call_terminate(ptr %45) #40
  unreachable
}